target datalayout = "e-m:e-p270:32:32-p271:32:32-p272:64:64-i64:64-i128:128-f80:128-n8:16:32:64-S128"
target triple = "x86_64-pc-linux-gnu"

%"struct.__cxxabiv1::__dynamic_cast_info" = type { ptr, ptr, ptr, i64, ptr, ptr, i32, i32, i32, i32, i32, i32, i32, i8, i8, i8, i8, ptr }

; Function Attrs: mustprogress nounwind uwtable
define hidden void @_ZNK10__cxxabiv117__class_type_info29process_static_type_below_dstEPNS_19__dynamic_cast_infoEPKvi(ptr noundef nonnull align 8 dereferenceable(16) %0, ptr noundef %1, ptr noundef %2, i32 noundef %3) #1 align 2 {
  %5 = alloca ptr, align 8
  %6 = alloca ptr, align 8
  %7 = alloca ptr, align 8
  %8 = alloca i32, align 4
  store ptr %0, ptr %5, align 8, !tbaa !17
  store ptr %1, ptr %6, align 8, !tbaa !68
  store ptr %2, ptr %7, align 8, !tbaa !37
  store i32 %3, ptr %8, align 4, !tbaa !70
  %9 = load ptr, ptr %7, align 8, !tbaa !37
  %10 = load ptr, ptr %6, align 8, !tbaa !68
  %11 = getelementptr inbounds nuw %"struct.__cxxabiv1::__dynamic_cast_info", ptr %10, i32 0, i32 1
  %12 = load ptr, ptr %11, align 8, !tbaa !44
  %13 = icmp eq ptr %9, %12
  br i1 %13, label %14, label %24

14:                                               ; preds = %4
  %15 = load ptr, ptr %6, align 8, !tbaa !68
  %16 = getelementptr inbounds nuw %"struct.__cxxabiv1::__dynamic_cast_info", ptr %15, i32 0, i32 7
  %17 = load i32, ptr %16, align 4, !tbaa !50
  %18 = icmp ne i32 %17, 1
  br i1 %18, label %19, label %23

19:                                               ; preds = %14
  %20 = load i32, ptr %8, align 4, !tbaa !70
  %21 = load ptr, ptr %6, align 8, !tbaa !68
  %22 = getelementptr inbounds nuw %"struct.__cxxabiv1::__dynamic_cast_info", ptr %21, i32 0, i32 7
  store i32 %20, ptr %22, align 4, !tbaa !50
  br label %23

23:                                               ; preds = %19, %14
  br label %24

24:                                               ; preds = %23, %4
  ret void
}