; Function Attrs: mustprogress nofree norecurse nosync nounwind willreturn memory(argmem: readwrite) uwtable
define hidden void @_ZNK10__cxxabiv117__class_type_info29process_static_type_below_dstEPNS_19__dynamic_cast_infoEPKvi(ptr noundef nonnull readnone align 8 captures(none) dereferenceable(16) %0, ptr noundef captures(none) %1, ptr noundef readnone captures(address) %2, i32 noundef %3) local_unnamed_addr #11 align 2 {
  %5 = getelementptr inbounds nuw i8, ptr %1, i64 8
  %6 = load ptr, ptr %5, align 8, !tbaa !17
  %7 = icmp eq ptr %2, %6
  br i1 %7, label %8, label %12

8:                                                ; preds = %4
  %9 = getelementptr inbounds nuw i8, ptr %1, i64 52
  %10 = load i32, ptr %9, align 4, !tbaa !56
  %.not = icmp eq i32 %10, 1
  br i1 %.not, label %12, label %11

11:                                               ; preds = %8
  store i32 %3, ptr %9, align 4, !tbaa !56
  br label %12

12:                                               ; preds = %8, %11, %4
  ret void
}